target datalayout = "e-m:e-p270:32:32-p271:32:32-p272:64:64-i64:64-i128:128-f80:128-n8:16:32:64-S128"
target triple = "x86_64-pc-linux-gnu"

%struct.UCharIterator = type { ptr, i32, i32, i32, i32, i32, ptr, ptr, ptr, ptr, ptr, ptr, ptr, ptr, ptr, ptr }

; Function Attrs: mustprogress nounwind uwtable
define internal noundef i32 @_ZL22stringIteratorGetIndexP13UCharIterator19UCharIteratorOrigin(ptr noundef %0, i32 noundef %1) #3 {
  %3 = alloca i32, align 4
  %4 = alloca ptr, align 8
  %5 = alloca i32, align 4
  store ptr %0, ptr %4, align 8, !tbaa !3
  store i32 %1, ptr %5, align 4, !tbaa !37
  %6 = load i32, ptr %5, align 4, !tbaa !37
  switch i32 %6, label %24 [
    i32 3, label %7
    i32 0, label %8
    i32 1, label %12
    i32 2, label %16
    i32 4, label %20
  ]

7:                                                ; preds = %2
  store i32 0, ptr %3, align 4
  br label %25

8:                                                ; preds = %2
  %9 = load ptr, ptr %4, align 8, !tbaa !3
  %10 = getelementptr inbounds nuw %struct.UCharIterator, ptr %9, i32 0, i32 2
  %11 = load i32, ptr %10, align 4, !tbaa !39
  store i32 %11, ptr %3, align 4
  br label %25

12:                                               ; preds = %2
  %13 = load ptr, ptr %4, align 8, !tbaa !3
  %14 = getelementptr inbounds nuw %struct.UCharIterator, ptr %13, i32 0, i32 3
  %15 = load i32, ptr %14, align 8, !tbaa !40
  store i32 %15, ptr %3, align 4
  br label %25

16:                                               ; preds = %2
  %17 = load ptr, ptr %4, align 8, !tbaa !3
  %18 = getelementptr inbounds nuw %struct.UCharIterator, ptr %17, i32 0, i32 4
  %19 = load i32, ptr %18, align 4, !tbaa !17
  store i32 %19, ptr %3, align 4
  br label %25

20:                                               ; preds = %2
  %21 = load ptr, ptr %4, align 8, !tbaa !3
  %22 = getelementptr inbounds nuw %struct.UCharIterator, ptr %21, i32 0, i32 1
  %23 = load i32, ptr %22, align 8, !tbaa !16
  store i32 %23, ptr %3, align 4
  br label %25

24:                                               ; preds = %2
  store i32 -1, ptr %3, align 4
  br label %25

25:                                               ; preds = %24, %20, %16, %12, %8, %7
  %26 = load i32, ptr %3, align 4
  ret i32 %26
}