; Function Attrs: mustprogress nofree norecurse nosync nounwind willreturn memory(argmem: read) uwtable
define internal noundef i32 @_ZL22stringIteratorGetIndexP13UCharIterator19UCharIteratorOrigin(ptr noundef readonly captures(none) %0, i32 noundef %1) #7 {
  switch i32 %1, label %15 [
    i32 3, label %16
    i32 0, label %3
    i32 1, label %6
    i32 2, label %9
    i32 4, label %12
  ]

3:                                                ; preds = %2
  %4 = getelementptr inbounds nuw i8, ptr %0, i64 12
  %5 = load i32, ptr %4, align 4, !tbaa !27
  br label %16

6:                                                ; preds = %2
  %7 = getelementptr inbounds nuw i8, ptr %0, i64 16
  %8 = load i32, ptr %7, align 8, !tbaa !28
  br label %16

9:                                                ; preds = %2
  %10 = getelementptr inbounds nuw i8, ptr %0, i64 20
  %11 = load i32, ptr %10, align 4, !tbaa !13
  br label %16

12:                                               ; preds = %2
  %13 = getelementptr inbounds nuw i8, ptr %0, i64 8
  %14 = load i32, ptr %13, align 8, !tbaa !12
  br label %16

15:                                               ; preds = %2
  br label %16

16:                                               ; preds = %2, %15, %12, %9, %6, %3
  %.0 = phi i32 [ -1, %15 ], [ %14, %12 ], [ %11, %9 ], [ %8, %6 ], [ %5, %3 ], [ 0, %2 ]
  ret i32 %.0
}